target datalayout = "e-m:e-p270:32:32-p271:32:32-p272:64:64-i64:64-i128:128-f80:128-n8:16:32:64-S128"
target triple = "x86_64-pc-linux-gnu"

@proto_register_teredo.ett = internal global [3 x ptr] [ptr @ett_teredo, ptr @ett_teredo_auth, ptr @ett_teredo_orig], align 16
@.str.26 = private unnamed_addr constant [31 x i8] c"Teredo IPv6 over UDP tunneling\00", align 1
@.str.27 = private unnamed_addr constant [7 x i8] c"Teredo\00", align 1
@.str.28 = private unnamed_addr constant [7 x i8] c"teredo\00", align 1
@proto_teredo = internal global i32 0, align 4
@teredo_handle = internal global ptr null, align 8
@teredo_dissector_table = internal global ptr null, align 8
@.str.29 = private unnamed_addr constant [17 x i8] c"heuristic_teredo\00", align 1
@teredo_tap = internal global i32 0, align 4

; Function Attrs: null_pointer_is_valid sspstrong uwtable
define hidden void @proto_register_teredo() #0 {
  %1 = alloca ptr, align 8
  call void @llvm.lifetime.start.p0(i64 8, ptr %1) #3
  %2 = call i32 @proto_register_protocol(ptr noundef @.str.26, ptr noundef @.str.27, ptr noundef @.str.28)
  store i32 %2, ptr @proto_teredo, align 4
  %3 = load i32, ptr @proto_teredo, align 4
  call void @proto_register_field_array(i32 noundef %3, ptr noundef @proto_register_teredo.hf, i32 noundef 10)
  call void @proto_register_subtree_array(ptr noundef @proto_register_teredo.ett, i32 noundef 3)
  %4 = load i32, ptr @proto_teredo, align 4
  %5 = call ptr @register_dissector(ptr noundef @.str.28, ptr noundef @dissect_teredo, i32 noundef %4)
  store ptr %5, ptr @teredo_handle, align 8
  %6 = load i32, ptr @proto_teredo, align 4
  %7 = call ptr @register_dissector_table(ptr noundef @.str.28, ptr noundef @.str.27, i32 noundef %6, i32 noundef 5, i32 noundef 1)
  store ptr %7, ptr @teredo_dissector_table, align 8
  %8 = load i32, ptr @proto_teredo, align 4
  %9 = call ptr @prefs_register_protocol(i32 noundef %8, ptr noundef null)
  store ptr %9, ptr %1, align 8
  %10 = load ptr, ptr %1, align 8
  call void @prefs_register_obsolete_preference(ptr noundef %10, ptr noundef @.str.29)
  %11 = call i32 @register_tap(ptr noundef @.str.28)
  store i32 %11, ptr @teredo_tap, align 4
  call void @llvm.lifetime.end.p0(i64 8, ptr %1) #3
  ret void
}