; Function Attrs: null_pointer_is_valid sspstrong uwtable
define hidden void @proto_register_teredo() local_unnamed_addr #0 {
  %1 = tail call i32 @proto_register_protocol(ptr noundef nonnull @.str.26, ptr noundef nonnull @.str.27, ptr noundef nonnull @.str.28)
  store i32 %1, ptr @proto_teredo, align 4
  tail call void @proto_register_field_array(i32 noundef %1, ptr noundef nonnull @proto_register_teredo.hf, i32 noundef 10)
  tail call void @proto_register_subtree_array(ptr noundef nonnull @proto_register_teredo.ett, i32 noundef 3)
  %2 = load i32, ptr @proto_teredo, align 4
  %3 = tail call ptr @register_dissector(ptr noundef nonnull @.str.28, ptr noundef nonnull @dissect_teredo, i32 noundef %2)
  store ptr %3, ptr @teredo_handle, align 8
  %4 = load i32, ptr @proto_teredo, align 4
  %5 = tail call ptr @register_dissector_table(ptr noundef nonnull @.str.28, ptr noundef nonnull @.str.27, i32 noundef %4, i32 noundef 5, i32 noundef 1)
  store ptr %5, ptr @teredo_dissector_table, align 8
  %6 = load i32, ptr @proto_teredo, align 4
  %7 = tail call ptr @prefs_register_protocol(i32 noundef %6, ptr noundef null)
  tail call void @prefs_register_obsolete_preference(ptr noundef %7, ptr noundef nonnull @.str.29)
  %8 = tail call i32 @register_tap(ptr noundef nonnull @.str.28)
  store i32 %8, ptr @teredo_tap, align 4
  ret void
}